Certificate:
    Data:
        Version: 3 (0x2)
        Serial Number:
            36:3e:86:80:0c:d6:7e:d3:6c:20:f8:29:85:5a:6d:df:d6:71:ae:d7
        Signature Algorithm: sha256WithRSAEncryption
        Issuer: CN=localhost
        Validity
            Not Before: Apr 20 02:16:12 2024 GMT
            Not After : May 20 02:16:12 2024 GMT
        Subject: CN=localhost
        Subject Public Key Info:
            Public Key Algorithm: rsaEncryption
                Public-Key: (2048 bit)
                Modulus:
                    00:e5:59:f2:ee:2b:5d:7a:24:47:ff:bb:24:06:03:
                    e1:3c:dd:53:36:51:17:46:56:de:55:4f:c8:1a:6a:
                    f0:e6:20:e2:73:d1:6e:be:d3:e3:24:2d:52:87:b8:
                    ec:64:76:aa:5a:60:97:39:30:16:3d:af:e5:b4:c7:
                    4a:cc:09:a0:7b:78:0f:07:ed:32:e0:b4:74:ac:52:
                    dd:df:0d:ff:40:9c:8c:d9:36:e1:0d:cd:eb:96:9e:
                    72:22:dc:0f:47:42:e3:34:a0:60:e8:b3:ce:7f:e9:
                    c7:95:d1:fe:89:2b:c0:28:35:cd:1a:fe:eb:9f:81:
                    fc:91:70:3a:ab:0a:9a:d4:dc:9d:70:d2:8d:d4:5a:
                    67:a6:73:52:e8:ac:ff:57:fd:8a:99:7f:82:43:af:
                    42:2e:10:ef:55:5a:33:10:75:68:bc:46:d0:60:58:
                    54:b1:70:cb:e0:25:1e:b8:70:15:f8:b1:3e:06:28:
                    91:79:47:48:98:03:6a:0c:ab:78:fb:3f:3e:d3:61:
                    33:64:a7:da:62:aa:17:09:fc:15:f8:9a:e4:df:fd:
                    d7:0b:47:b5:e4:67:6e:a6:65:00:f7:fa:c2:22:53:
                    25:5f:ab:75:54:9a:f2:09:2c:dc:52:17:24:f8:25:
                    da:ba:4c:b7:7a:9c:5c:c4:cb:94:b7:a9:56:2f:2b:
                    80:0b
                Exponent: 65537 (0x10001)
        X509v3 extensions:
            X509v3 Subject Key Identifier: 
                17:46:56:90:E0:BA:11:C4:50:8D:9E:BD:76:4C:E1:CB:07:65:FA:B4
            X509v3 Authority Key Identifier: 
                17:46:56:90:E0:BA:11:C4:50:8D:9E:BD:76:4C:E1:CB:07:65:FA:B4
            X509v3 Basic Constraints: critical
                CA:TRUE
    Signature Algorithm: sha256WithRSAEncryption
    Signature Value:
        54:74:2e:98:84:37:f3:d9:4a:72:98:70:90:c1:ab:fb:a8:38:
        32:57:10:13:90:35:e4:73:b1:02:96:d6:a7:51:de:33:7b:53:
        f7:77:b0:a5:5f:ec:3e:93:5e:35:fe:e1:82:45:76:60:83:fc:
        dc:80:66:6c:23:a6:6f:90:e5:24:ed:ee:c5:63:42:5a:09:ef:
        4c:df:a3:ae:a8:42:c5:22:16:a7:f1:24:f9:33:2f:5a:1a:ce:
        a9:9b:8d:8e:52:d9:a3:6c:f7:58:e9:b6:85:bc:cf:bb:0d:fd:
        a6:d6:22:a9:dc:82:6d:4a:52:e4:e0:33:7d:f4:df:56:b4:1d:
        d7:83:69:8d:4f:a0:9d:14:19:ba:ac:49:c6:7d:13:74:80:c5:
        98:60:7d:ef:1d:24:51:27:4a:27:30:b4:c3:14:65:2e:10:98:
        89:7f:c5:a7:e5:fc:8e:1c:87:f6:c2:b0:b4:2e:13:91:c4:82:
        8a:f8:95:85:96:38:ad:48:63:4b:42:98:0c:7e:76:8f:17:da:
        f5:45:36:81:3a:b0:6c:6e:6f:d5:66:59:b9:83:3b:eb:31:88:
        0b:d6:fb:a5:04:80:5d:d5:03:95:ec:d1:92:2b:12:4f:6c:1f:
        77:15:68:5d:3a:62:c5:d1:11:41:b5:da:5b:9e:66:24:2c:0a:
        60:3a:c7:5e
-----BEGIN CERTIFICATE-----
MIIDCTCCAfGgAwIBAgIUNj6GgAzWftNsIPgphVpt39ZxrtcwDQYJKoZIhvcNAQEL
BQAwFDESMBAGA1UEAwwJbG9jYWxob3N0MB4XDTI0MDQyMDAyMTYxMloXDTI0MDUy
MDAyMTYxMlowFDESMBAGA1UEAwwJbG9jYWxob3N0MIIBIjANBgkqhkiG9w0BAQEF
AAOCAQ8AMIIBCgKCAQEA5Vny7itdeiRH/7skBgPhPN1TNlEXRlbeVU/IGmrw5iDi
c9FuvtPjJC1Sh7jsZHaqWmCXOTAWPa/ltMdKzAmge3gPB+0y4LR0rFLd3w3/QJyM
2TbhDc3rlp5yItwPR0LjNKBg6LPOf+nHldH+iSvAKDXNGv7rn4H8kXA6qwqa1Nyd
cNKN1FpnpnNS6Kz/V/2KmX+CQ69CLhDvVVozEHVovEbQYFhUsXDL4CUeuHAV+LE+
BiiReUdImANqDKt4+z8+02EzZKfaYqoXCfwV+Jrk3/3XC0e15GdupmUA9/rCIlMl
X6t1VJryCSzcUhck+CXauky3epxcxMuUt6lWLyuACwIDAQABo1MwUTAdBgNVHQ4E
FgQUF0ZWkOC6EcRQjZ69dkzhywdl+rQwHwYDVR0jBBgwFoAUF0ZWkOC6EcRQjZ69
dkzhywdl+rQwDwYDVR0TAQH/BAUwAwEB/zANBgkqhkiG9w0BAQsFAAOCAQEAVHQu
mIQ389lKcphwkMGr+6g4MlcQE5A15HOxApbWp1HeM3tT93ewpV/sPpNeNf7hgkV2
YIP83IBmbCOmb5DlJO3uxWNCWgnvTN+jrqhCxSIWp/Ek+TMvWhrOqZuNjlLZo2z3
WOm2hbzPuw39ptYiqdyCbUpS5OAzffTfVrQd14NpjU+gnRQZuqxJxn0TdIDFmGB9
7x0kUSdKJzC0wxRlLhCYiX/Fp+X8jhyH9sKwtC4TkcSCiviVhZY4rUhjS0KYDH52
jxfa9UU2gTqwbG5v1WZZuYM76zGIC9b7pQSAXdUDlezRkisST2wfdxVoXTpixdER
QbXaW55mJCwKYDrHXg==
-----END CERTIFICATE-----
